; Function Attrs: nounwind uwtable
define dso_local ptr @Curl_hash_offt_get(ptr noundef readonly captures(none) %0, i64 noundef %1) local_unnamed_addr #1 {
  %3 = alloca i64, align 8
  store i64 %1, ptr %3, align 8, !tbaa !39
  %4 = load ptr, ptr %0, align 8, !tbaa !4
  %.not.i = icmp eq ptr %4, null
  br i1 %.not.i, label %Curl_hash_pick.exit, label %5

5:                                                ; preds = %2
  %6 = getelementptr inbounds nuw i8, ptr %0, i64 8
  %7 = load ptr, ptr %6, align 8, !tbaa !11
  %8 = getelementptr inbounds nuw i8, ptr %0, i64 32
  %9 = load i64, ptr %8, align 8, !tbaa !15
  %10 = call i64 %7(ptr noundef nonnull %3, i64 noundef 8, i64 noundef %9) #9
  %11 = getelementptr inbounds nuw %struct.Curl_llist, ptr %4, i64 %10
  %12 = call ptr @Curl_llist_head(ptr noundef nonnull %11) #9
  %.not22.not29.i = icmp eq ptr %12, null
  br i1 %.not22.not29.i, label %Curl_hash_pick.exit, label %.lr.ph.i

.lr.ph.i:                                         ; preds = %5
  %13 = getelementptr inbounds nuw i8, ptr %0, i64 16
  br label %14

14:                                               ; preds = %21, %.lr.ph.i
  %.02030.i = phi ptr [ %12, %.lr.ph.i ], [ %22, %21 ]
  %15 = call ptr @Curl_node_elem(ptr noundef nonnull %.02030.i) #9
  %16 = load ptr, ptr %13, align 8, !tbaa !12
  %17 = getelementptr inbounds nuw i8, ptr %15, i64 56
  %18 = getelementptr inbounds nuw i8, ptr %15, i64 48
  %19 = load i64, ptr %18, align 8, !tbaa !19
  %20 = call i64 %16(ptr noundef nonnull %17, i64 noundef %19, ptr noundef nonnull %3, i64 noundef 8) #9
  %.not23.i = icmp eq i64 %20, 0
  br i1 %.not23.i, label %21, label %23

21:                                               ; preds = %14
  %22 = call ptr @Curl_node_next(ptr noundef nonnull %.02030.i) #9
  %.not22.not.i = icmp eq ptr %22, null
  br i1 %.not22.not.i, label %Curl_hash_pick.exit, label %14, !llvm.loop !27

23:                                               ; preds = %14
  %24 = getelementptr inbounds nuw i8, ptr %15, i64 32
  %25 = load ptr, ptr %24, align 8, !tbaa !24
  br label %Curl_hash_pick.exit

Curl_hash_pick.exit:                              ; preds = %21, %2, %5, %23
  %.3.i = phi ptr [ %25, %23 ], [ null, %2 ], [ null, %5 ], [ null, %21 ]
  ret ptr %.3.i
}